target datalayout = "e-m:e-p270:32:32-p271:32:32-p272:64:64-i64:64-i128:128-f80:128-n8:16:32:64-S128"
target triple = "x86_64-pc-linux-gnu"

%"class.LIEF::MachO::ChainedBindingInfoList" = type { %"class.LIEF::MachO::ChainedBindingInfo", %"class.std::vector" }
%"class.LIEF::MachO::ChainedBindingInfo" = type { %"class.LIEF::MachO::BindingInfo", i32, i32, i32, i32, %union.anon }
%"class.LIEF::MachO::BindingInfo" = type { %"class.LIEF::Object", ptr, ptr, i32, i64, i8, ptr, i64 }
%"class.LIEF::Object" = type { ptr }
%union.anon = type { ptr }
%"class.std::vector" = type { %"struct.std::_Vector_base" }
%"struct.std::_Vector_base" = type { %"struct.std::_Vector_base<LIEF::MachO::ChainedBindingInfo *, std::allocator<LIEF::MachO::ChainedBindingInfo *>>::_Vector_impl" }
%"struct.std::_Vector_base<LIEF::MachO::ChainedBindingInfo *, std::allocator<LIEF::MachO::ChainedBindingInfo *>>::_Vector_impl" = type { %"struct.std::_Vector_base<LIEF::MachO::ChainedBindingInfo *, std::allocator<LIEF::MachO::ChainedBindingInfo *>>::_Vector_impl_data" }
%"struct.std::_Vector_base<LIEF::MachO::ChainedBindingInfo *, std::allocator<LIEF::MachO::ChainedBindingInfo *>>::_Vector_impl_data" = type { ptr, ptr, ptr }

; Function Attrs: mustprogress nounwind uwtable
define linkonce_odr void @_ZSt15__alloc_on_swapISaIPN4LIEF5MachO18ChainedBindingInfoEEEvRT_S6_(ptr noundef nonnull align 1 dereferenceable(1) %0, ptr noundef nonnull align 1 dereferenceable(1) %1) #2 comdat {
  %3 = alloca ptr, align 8
  %4 = alloca ptr, align 8
  store ptr %0, ptr %3, align 8
  store ptr %1, ptr %4, align 8
  ret void
}

; Function Attrs: mustprogress nounwind uwtable
define linkonce_odr hidden void @_ZNSt12_Vector_baseIPN4LIEF5MachO18ChainedBindingInfoESaIS3_EE17_Vector_impl_data12_M_copy_dataERKS6_(ptr noundef nonnull align 8 dereferenceable(24) %0, ptr noundef nonnull align 8 dereferenceable(24) %1) #2 comdat align 2 {
  %3 = alloca ptr, align 8
  %4 = alloca ptr, align 8
  store ptr %0, ptr %3, align 8
  store ptr %1, ptr %4, align 8
  %5 = load ptr, ptr %3, align 8
  %6 = load ptr, ptr %4, align 8
  %7 = getelementptr inbounds %"struct.std::_Vector_base<LIEF::MachO::ChainedBindingInfo *, std::allocator<LIEF::MachO::ChainedBindingInfo *>>::_Vector_impl_data", ptr %6, i32 0, i32 0
  %8 = load ptr, ptr %7, align 8
  %9 = getelementptr inbounds %"struct.std::_Vector_base<LIEF::MachO::ChainedBindingInfo *, std::allocator<LIEF::MachO::ChainedBindingInfo *>>::_Vector_impl_data", ptr %5, i32 0, i32 0
  store ptr %8, ptr %9, align 8
  %10 = load ptr, ptr %4, align 8
  %11 = getelementptr inbounds %"struct.std::_Vector_base<LIEF::MachO::ChainedBindingInfo *, std::allocator<LIEF::MachO::ChainedBindingInfo *>>::_Vector_impl_data", ptr %10, i32 0, i32 1
  %12 = load ptr, ptr %11, align 8
  %13 = getelementptr inbounds %"struct.std::_Vector_base<LIEF::MachO::ChainedBindingInfo *, std::allocator<LIEF::MachO::ChainedBindingInfo *>>::_Vector_impl_data", ptr %5, i32 0, i32 1
  store ptr %12, ptr %13, align 8
  %14 = load ptr, ptr %4, align 8
  %15 = getelementptr inbounds %"struct.std::_Vector_base<LIEF::MachO::ChainedBindingInfo *, std::allocator<LIEF::MachO::ChainedBindingInfo *>>::_Vector_impl_data", ptr %14, i32 0, i32 2
  %16 = load ptr, ptr %15, align 8
  %17 = getelementptr inbounds %"struct.std::_Vector_base<LIEF::MachO::ChainedBindingInfo *, std::allocator<LIEF::MachO::ChainedBindingInfo *>>::_Vector_impl_data", ptr %5, i32 0, i32 2
  store ptr %16, ptr %17, align 8
  ret void
}

; Function Attrs: mustprogress nounwind uwtable
define linkonce_odr hidden void @_ZNSt12_Vector_baseIPN4LIEF5MachO18ChainedBindingInfoESaIS3_EE17_Vector_impl_dataC2Ev(ptr noundef nonnull align 8 dereferenceable(24) %0) unnamed_addr #2 comdat align 2 {
  %2 = alloca ptr, align 8
  store ptr %0, ptr %2, align 8
  %3 = load ptr, ptr %2, align 8
  %4 = getelementptr inbounds %"struct.std::_Vector_base<LIEF::MachO::ChainedBindingInfo *, std::allocator<LIEF::MachO::ChainedBindingInfo *>>::_Vector_impl_data", ptr %3, i32 0, i32 0
  store ptr null, ptr %4, align 8
  %5 = getelementptr inbounds %"struct.std::_Vector_base<LIEF::MachO::ChainedBindingInfo *, std::allocator<LIEF::MachO::ChainedBindingInfo *>>::_Vector_impl_data", ptr %3, i32 0, i32 1
  store ptr null, ptr %5, align 8
  %6 = getelementptr inbounds %"struct.std::_Vector_base<LIEF::MachO::ChainedBindingInfo *, std::allocator<LIEF::MachO::ChainedBindingInfo *>>::_Vector_impl_data", ptr %3, i32 0, i32 2
  store ptr null, ptr %6, align 8
  ret void
}

; Function Attrs: noreturn nounwind uwtable
define linkonce_odr hidden void @__clang_call_terminate(ptr noundef %0) #5 comdat {
  %2 = call ptr @__cxa_begin_catch(ptr %0) #6
  call void @_ZSt9terminatev() #7
  unreachable
}

; Function Attrs: mustprogress uwtable
define linkonce_odr hidden void @_ZN9__gnu_cxx14__alloc_traitsISaIPN4LIEF5MachO18ChainedBindingInfoEES4_E10_S_on_swapERS5_S7_(ptr noundef nonnull align 1 dereferenceable(1) %0, ptr noundef nonnull align 1 dereferenceable(1) %1) #0 comdat align 2 {
  %3 = alloca ptr, align 8
  %4 = alloca ptr, align 8
  store ptr %0, ptr %3, align 8
  store ptr %1, ptr %4, align 8
  %5 = load ptr, ptr %3, align 8
  %6 = load ptr, ptr %4, align 8
  call void @_ZSt15__alloc_on_swapISaIPN4LIEF5MachO18ChainedBindingInfoEEEvRT_S6_(ptr noundef nonnull align 1 dereferenceable(1) %5, ptr noundef nonnull align 1 dereferenceable(1) %6)
  ret void
}

; Function Attrs: mustprogress nounwind uwtable
define linkonce_odr hidden noundef nonnull align 1 dereferenceable(1) ptr @_ZNSt12_Vector_baseIPN4LIEF5MachO18ChainedBindingInfoESaIS3_EE19_M_get_Tp_allocatorEv(ptr noundef nonnull align 8 dereferenceable(24) %0) #2 comdat align 2 {
  %2 = alloca ptr, align 8
  store ptr %0, ptr %2, align 8
  %3 = load ptr, ptr %2, align 8
  %4 = getelementptr inbounds %"struct.std::_Vector_base", ptr %3, i32 0, i32 0
  ret ptr %4
}

; Function Attrs: mustprogress nounwind uwtable
define linkonce_odr hidden void @_ZNSt12_Vector_baseIPN4LIEF5MachO18ChainedBindingInfoESaIS3_EE17_Vector_impl_data12_M_swap_dataERS6_(ptr noundef nonnull align 8 dereferenceable(24) %0, ptr noundef nonnull align 8 dereferenceable(24) %1) #2 comdat align 2 {
  %3 = alloca ptr, align 8
  %4 = alloca ptr, align 8
  %5 = alloca %"struct.std::_Vector_base<LIEF::MachO::ChainedBindingInfo *, std::allocator<LIEF::MachO::ChainedBindingInfo *>>::_Vector_impl_data", align 8
  store ptr %0, ptr %3, align 8
  store ptr %1, ptr %4, align 8
  %6 = load ptr, ptr %3, align 8
  call void @_ZNSt12_Vector_baseIPN4LIEF5MachO18ChainedBindingInfoESaIS3_EE17_Vector_impl_dataC2Ev(ptr noundef nonnull align 8 dereferenceable(24) %5) #6
  call void @_ZNSt12_Vector_baseIPN4LIEF5MachO18ChainedBindingInfoESaIS3_EE17_Vector_impl_data12_M_copy_dataERKS6_(ptr noundef nonnull align 8 dereferenceable(24) %5, ptr noundef nonnull align 8 dereferenceable(24) %6) #6
  %7 = load ptr, ptr %4, align 8
  call void @_ZNSt12_Vector_baseIPN4LIEF5MachO18ChainedBindingInfoESaIS3_EE17_Vector_impl_data12_M_copy_dataERKS6_(ptr noundef nonnull align 8 dereferenceable(24) %6, ptr noundef nonnull align 8 dereferenceable(24) %7) #6
  %8 = load ptr, ptr %4, align 8
  call void @_ZNSt12_Vector_baseIPN4LIEF5MachO18ChainedBindingInfoESaIS3_EE17_Vector_impl_data12_M_copy_dataERKS6_(ptr noundef nonnull align 8 dereferenceable(24) %8, ptr noundef nonnull align 8 dereferenceable(24) %5) #6
  ret void
}

; Function Attrs: mustprogress nounwind uwtable
define linkonce_odr hidden void @_ZNSt6vectorIPN4LIEF5MachO18ChainedBindingInfoESaIS3_EE4swapERS5_(ptr noundef nonnull align 8 dereferenceable(24) %0, ptr noundef nonnull align 8 dereferenceable(24) %1) #2 comdat align 2 personality ptr @__gxx_personality_v0 {
  %3 = alloca ptr, align 8
  %4 = alloca ptr, align 8
  store ptr %0, ptr %3, align 8
  store ptr %1, ptr %4, align 8
  %5 = load ptr, ptr %3, align 8
  br label %6

6:                                                ; preds = %2
  br label %7

7:                                                ; preds = %6
  br label %8

8:                                                ; preds = %7
  %9 = getelementptr inbounds %"struct.std::_Vector_base", ptr %5, i32 0, i32 0
  %10 = load ptr, ptr %4, align 8
  %11 = getelementptr inbounds %"struct.std::_Vector_base", ptr %10, i32 0, i32 0
  call void @_ZNSt12_Vector_baseIPN4LIEF5MachO18ChainedBindingInfoESaIS3_EE17_Vector_impl_data12_M_swap_dataERS6_(ptr noundef nonnull align 8 dereferenceable(24) %9, ptr noundef nonnull align 8 dereferenceable(24) %11) #6
  %12 = call noundef nonnull align 1 dereferenceable(1) ptr @_ZNSt12_Vector_baseIPN4LIEF5MachO18ChainedBindingInfoESaIS3_EE19_M_get_Tp_allocatorEv(ptr noundef nonnull align 8 dereferenceable(24) %5) #6
  %13 = load ptr, ptr %4, align 8
  %14 = call noundef nonnull align 1 dereferenceable(1) ptr @_ZNSt12_Vector_baseIPN4LIEF5MachO18ChainedBindingInfoESaIS3_EE19_M_get_Tp_allocatorEv(ptr noundef nonnull align 8 dereferenceable(24) %13) #6
  invoke void @_ZN9__gnu_cxx14__alloc_traitsISaIPN4LIEF5MachO18ChainedBindingInfoEES4_E10_S_on_swapERS5_S7_(ptr noundef nonnull align 1 dereferenceable(1) %12, ptr noundef nonnull align 1 dereferenceable(1) %14)
          to label %15 unwind label %16

15:                                               ; preds = %8
  ret void

16:                                               ; preds = %8
  %17 = landingpad { ptr, i32 }
          catch ptr null
  %18 = extractvalue { ptr, i32 } %17, 0
  call void @__clang_call_terminate(ptr %18) #7
  unreachable
}

; Function Attrs: mustprogress nounwind uwtable
define linkonce_odr void @_ZSt4swapIPN4LIEF5MachO18ChainedBindingInfoESaIS3_EEvRSt6vectorIT_T0_ES9_(ptr noundef nonnull align 8 dereferenceable(24) %0, ptr noundef nonnull align 8 dereferenceable(24) %1) #2 comdat {
  %3 = alloca ptr, align 8
  %4 = alloca ptr, align 8
  store ptr %0, ptr %3, align 8
  store ptr %1, ptr %4, align 8
  %5 = load ptr, ptr %3, align 8
  %6 = load ptr, ptr %4, align 8
  call void @_ZNSt6vectorIPN4LIEF5MachO18ChainedBindingInfoESaIS3_EE4swapERS5_(ptr noundef nonnull align 8 dereferenceable(24) %5, ptr noundef nonnull align 8 dereferenceable(24) %6) #6
  ret void
}

; Function Attrs: mustprogress uwtable
define hidden void @_ZN4LIEF5MachO22ChainedBindingInfoList4swapERS1_(ptr noundef nonnull align 8 dereferenceable(112) %0, ptr noundef nonnull align 8 dereferenceable(112) %1) #0 align 2 {
  %3 = alloca ptr, align 8
  %4 = alloca ptr, align 8
  store ptr %0, ptr %3, align 8
  store ptr %1, ptr %4, align 8
  %5 = load ptr, ptr %3, align 8
  %6 = load ptr, ptr %4, align 8
  call void @_ZN4LIEF5MachO18ChainedBindingInfo4swapERS1_(ptr noundef nonnull align 8 dereferenceable(88) %5, ptr noundef nonnull align 8 dereferenceable(88) %6)
  %7 = getelementptr inbounds %"class.LIEF::MachO::ChainedBindingInfoList", ptr %5, i32 0, i32 1
  %8 = load ptr, ptr %4, align 8
  %9 = getelementptr inbounds %"class.LIEF::MachO::ChainedBindingInfoList", ptr %8, i32 0, i32 1
  call void @_ZSt4swapIPN4LIEF5MachO18ChainedBindingInfoESaIS3_EEvRSt6vectorIT_T0_ES9_(ptr noundef nonnull align 8 dereferenceable(24) %7, ptr noundef nonnull align 8 dereferenceable(24) %9) #6
  ret void
}