; Function Attrs: mustprogress uwtable
define hidden void @_ZN4LIEF5MachO22ChainedBindingInfoList4swapERS1_(ptr noundef nonnull align 8 dereferenceable(112) %0, ptr noundef nonnull align 8 dereferenceable(112) %1) local_unnamed_addr #0 align 2 personality ptr @__gxx_personality_v0 {
  tail call void @_ZN4LIEF5MachO18ChainedBindingInfo4swapERS1_(ptr noundef nonnull align 8 dereferenceable(88) %0, ptr noundef nonnull align 8 dereferenceable(88) %1)
  %3 = getelementptr inbounds i8, ptr %0, i64 88
  %4 = getelementptr inbounds i8, ptr %1, i64 88
  %5 = getelementptr inbounds i8, ptr %0, i64 96
  %6 = getelementptr inbounds i8, ptr %0, i64 104
  %7 = load ptr, ptr %6, align 8
  %8 = load ptr, ptr %4, align 8
  %9 = getelementptr inbounds i8, ptr %1, i64 96
  %10 = getelementptr inbounds i8, ptr %1, i64 104
  %11 = load <2 x ptr>, ptr %3, align 8
  store ptr %8, ptr %3, align 8
  %12 = load ptr, ptr %9, align 8
  store ptr %12, ptr %5, align 8
  %13 = load ptr, ptr %10, align 8
  store ptr %13, ptr %6, align 8
  store <2 x ptr> %11, ptr %4, align 8
  store ptr %7, ptr %10, align 8
  ret void
}